(imazeObject
MazeData
p0
(dp1
S'start'
p2
(I2
I5
tp3
sS'end'
p4
(I0
I0
tp5
sS'grid'
p6
(lp7
(lp8
(imazeObject
EdgeCell
p9
(dp10
ba(imazeObject
EdgeCell
p11
(dp12
ba(imazeObject
EdgeCell
p13
(dp14
ba(imazeObject
EdgeCell
p15
(dp16
ba(imazeObject
EdgeCell
p17
(dp18
ba(imazeObject
EdgeCell
p19
(dp20
ba(imazeObject
EdgeCell
p21
(dp22
ba(imazeObject
EdgeCell
p23
(dp24
ba(imazeObject
EdgeCell
p25
(dp26
ba(imazeObject
EdgeCell
p27
(dp28
ba(imazeObject
EdgeCell
p29
(dp30
baa(lp31
(imazeObject
EdgeCell
p32
(dp33
ba(imazeObject
Cell
p34
(dp35
S'Visited'
p36
I01
sS'S'
p37
I00
sS'E'
p38
I01
sS'Above'
p39
g32
sS'Left'
p40
g11
sba(imazeObject
Cell
p41
(dp42
g36
I01
sg37
I00
sg38
I01
sg39
g34
sg40
g13
sba(imazeObject
Cell
p43
(dp44
g36
I01
sg37
I00
sg38
I00
sg39
g41
sg40
g15
sba(imazeObject
Cell
p45
(dp46
g36
I01
sg37
I00
sg38
I01
sg39
g43
sg40
g17
sba(imazeObject
Cell
p47
(dp48
g36
I01
sg37
I00
sg38
I01
sg39
g45
sg40
g19
sba(imazeObject
Cell
p49
(dp50
g36
I01
sg37
I00
sg38
I00
sg39
g47
sg40
g21
sba(imazeObject
Cell
p51
(dp52
g36
I01
sg37
I01
sg38
I00
sg39
g49
sg40
g23
sba(imazeObject
Cell
p53
(dp54
g36
I01
sg37
I00
sg38
I00
sg39
g51
sg40
g25
sba(imazeObject
Cell
p55
(dp56
g36
I01
sg37
I00
sg38
I01
sg39
g53
sg40
g27
sba(imazeObject
Cell
p57
(dp58
g36
I01
sg37
I01
sg38
I00
sg39
g55
sg40
g29
sbaa(lp59
(imazeObject
EdgeCell
p60
(dp61
ba(imazeObject
Cell
p62
(dp63
g36
I01
sg37
I00
sg38
I00
sg39
g60
sg40
g34
sba(imazeObject
Cell
p64
(dp65
g36
I01
sg37
I01
sg38
I00
sg39
g62
sg40
g41
sba(imazeObject
Cell
p66
(dp67
g36
I01
sg37
I00
sg38
I00
sg39
g64
sg40
g43
sba(imazeObject
Cell
p68
(dp69
g36
I01
sg37
I01
sg38
I01
sg39
g66
sg40
g45
sba(imazeObject
Cell
p70
(dp71
g36
I01
sg37
I00
sg38
I00
sg39
g68
sg40
g47
sba(imazeObject
Cell
p72
(dp73
g36
I01
sg37
I01
sg38
I01
sg39
g70
sg40
g49
sba(imazeObject
Cell
p74
(dp75
g36
I01
sg37
I01
sg38
I01
sg39
g72
sg40
g51
sba(imazeObject
Cell
p76
(dp77
g36
I01
sg37
I00
sg38
I01
sg39
g74
sg40
g53
sba(imazeObject
Cell
p78
(dp79
g36
I01
sg37
I01
sg38
I00
sg39
g76
sg40
g55
sba(imazeObject
Cell
p80
(dp81
g36
I01
sg37
I01
sg38
I00
sg39
g78
sg40
g57
sbaa(lp82
(imazeObject
EdgeCell
p83
(dp84
ba(imazeObject
Cell
p85
(dp86
g36
I01
sg37
I01
sg38
I00
sg39
g83
sg40
g62
sba(imazeObject
Cell
p87
(dp88
g36
I01
sg37
I01
sg38
I00
sg39
g85
sg40
g64
sba(imazeObject
Cell
p89
(dp90
g36
I01
sg37
I00
sg38
I01
sg39
g87
sg40
g66
sba(imazeObject
Cell
p91
(dp92
g36
I01
sg37
I01
sg38
I00
sg39
g89
sg40
g68
sba(imazeObject
Cell
p93
(dp94
g36
I01
sg37
I01
sg38
I00
sg39
g91
sg40
g70
sba(imazeObject
Cell
p95
(dp96
g36
I01
sg37
I00
sg38
I01
sg39
g93
sg40
g72
sba(imazeObject
Cell
p97
(dp98
g36
I01
sg37
I00
sg38
I01
sg39
g95
sg40
g74
sba(imazeObject
Cell
p99
(dp100
g36
I01
sg37
I00
sg38
I01
sg39
g97
sg40
g76
sba(imazeObject
Cell
p101
(dp102
g36
I01
sg37
I01
sg38
I01
sg39
g99
sg40
g78
sba(imazeObject
Cell
p103
(dp104
g36
I01
sg37
I01
sg38
I00
sg39
g101
sg40
g80
sbaa(lp105
(imazeObject
EdgeCell
p106
(dp107
ba(imazeObject
Cell
p108
(dp109
g36
I01
sg37
I01
sg38
I00
sg39
g106
sg40
g85
sba(imazeObject
Cell
p110
(dp111
g36
I01
sg37
I00
sg38
I01
sg39
g108
sg40
g87
sba(imazeObject
Cell
p112
(dp113
g36
I01
sg37
I01
sg38
I00
sg39
g110
sg40
g89
sba(imazeObject
Cell
p114
(dp115
g36
I01
sg37
I01
sg38
I00
sg39
g112
sg40
g91
sba(imazeObject
Cell
p116
(dp117
g36
I01
sg37
I00
sg38
I01
sg39
g114
sg40
g93
sba(imazeObject
Cell
p118
(dp119
g36
I01
sg37
I01
sg38
I00
sg39
g116
sg40
g95
sba(imazeObject
Cell
p120
(dp121
g36
I01
sg37
I00
sg38
I00
sg39
g118
sg40
g97
sba(imazeObject
Cell
p122
(dp123
g36
I01
sg37
I01
sg38
I00
sg39
g120
sg40
g99
sba(imazeObject
Cell
p124
(dp125
g36
I01
sg37
I00
sg38
I00
sg39
g122
sg40
g101
sba(imazeObject
Cell
p126
(dp127
g36
I01
sg37
I01
sg38
I01
sg39
g124
sg40
g103
sbaa(lp128
(imazeObject
EdgeCell
p129
(dp130
ba(imazeObject
Cell
p131
(dp132
g36
I01
sg37
I00
sg38
I01
sg39
g129
sg40
g108
sba(imazeObject
Cell
p133
(dp134
g36
I01
sg37
I01
sg38
I01
sg39
g131
sg40
g110
sba(imazeObject
Cell
p135
(dp136
g36
I01
sg37
I00
sg38
I01
sg39
g133
sg40
g112
sba(imazeObject
Cell
p137
(dp138
g36
I01
sg37
I00
sg38
I01
sg39
g135
sg40
g114
sba(imazeObject
Cell
p139
(dp140
g36
I01
sg37
I01
sg38
I01
sg39
g137
sg40
g116
sba(imazeObject
Cell
p141
(dp142
g36
I01
sg37
I00
sg38
I01
sg39
g139
sg40
g118
sba(imazeObject
Cell
p143
(dp144
g36
I01
sg37
I01
sg38
I01
sg39
g141
sg40
g120
sba(imazeObject
Cell
p145
(dp146
g36
I01
sg37
I00
sg38
I01
sg39
g143
sg40
g122
sba(imazeObject
Cell
p147
(dp148
g36
I01
sg37
I00
sg38
I01
sg39
g145
sg40
g124
sba(imazeObject
Cell
p149
(dp150
g36
I01
sg37
I01
sg38
I01
sg39
g147
sg40
g126
sbaasS'solution'
p151
(lp152
sb.